target datalayout = "e-m:e-p270:32:32-p271:32:32-p272:64:64-i64:64-i128:128-f80:128-n8:16:32:64-S128"
target triple = "x86_64-unknown-linux-gnu"

%"class.datalog::table_signature" = type <{ %"class.datalog::tr_infrastructure<datalog::table_traits>::signature_base", i32, [4 x i8] }>
%"class.datalog::tr_infrastructure<datalog::table_traits>::signature_base" = type { %class.svector }
%class.svector = type { %class.vector }
%class.vector = type { ptr }
%"class.datalog::tr_infrastructure<datalog::table_traits>::base_ancestor" = type <{ ptr, ptr, %"class.datalog::table_signature", i32, [4 x i8] }>

; Function Attrs: mustprogress nounwind uwtable
define linkonce_odr hidden noundef nonnull align 8 dereferenceable(32) ptr @_ZNK7datalog17tr_infrastructureINS_12table_traitsEE13base_ancestor10get_pluginEv(ptr noundef nonnull align 8 dereferenceable(36) %this) #5 comdat align 2 {
entry:
  %this.addr = alloca ptr, align 8
  store ptr %this, ptr %this.addr, align 8
  %this1 = load ptr, ptr %this.addr, align 8
  %m_plugin = getelementptr inbounds %"class.datalog::tr_infrastructure<datalog::table_traits>::base_ancestor", ptr %this1, i32 0, i32 1
  %0 = load ptr, ptr %m_plugin, align 8
  ret ptr %0
}

; Function Attrs: mustprogress nounwind uwtable
define linkonce_odr hidden noundef zeroext i1 @_ZNK7datalog17tr_infrastructureINS_12table_traitsEE13plugin_object10check_kindERKNS_10table_baseE(ptr noundef nonnull align 8 dereferenceable(32) %this, ptr noundef nonnull align 8 dereferenceable(36) %r) #5 comdat align 2 {
entry:
  %this.addr = alloca ptr, align 8
  %r.addr = alloca ptr, align 8
  store ptr %this, ptr %this.addr, align 8
  store ptr %r, ptr %r.addr, align 8
  %this1 = load ptr, ptr %this.addr, align 8
  %0 = load ptr, ptr %r.addr, align 8
  %call = call noundef nonnull align 8 dereferenceable(32) ptr @_ZNK7datalog17tr_infrastructureINS_12table_traitsEE13base_ancestor10get_pluginEv(ptr noundef nonnull align 8 dereferenceable(36) %0)
  %cmp = icmp eq ptr %call, %this1
  ret i1 %cmp
}

; Function Attrs: mustprogress uwtable
define hidden noundef ptr @_ZN7datalog18check_table_plugin36mk_filter_interpreted_and_project_fnERKNS_10table_baseEP3appjPKj(ptr noundef nonnull align 8 dereferenceable(52) %this, ptr noundef nonnull align 8 dereferenceable(36) %t, ptr noundef %condition, i32 noundef %removed_col_cnt, ptr noundef %removed_cols) unnamed_addr #4 align 2 {
entry:
  %retval = alloca ptr, align 8
  %this.addr = alloca ptr, align 8
  %t.addr = alloca ptr, align 8
  %condition.addr = alloca ptr, align 8
  %removed_col_cnt.addr = alloca i32, align 4
  %removed_cols.addr = alloca ptr, align 8
  store ptr %this, ptr %this.addr, align 8
  store ptr %t, ptr %t.addr, align 8
  store ptr %condition, ptr %condition.addr, align 8
  store i32 %removed_col_cnt, ptr %removed_col_cnt.addr, align 4
  store ptr %removed_cols, ptr %removed_cols.addr, align 8
  %this1 = load ptr, ptr %this.addr, align 8
  %0 = load ptr, ptr %t.addr, align 8
  %call = call noundef zeroext i1 @_ZNK7datalog17tr_infrastructureINS_12table_traitsEE13plugin_object10check_kindERKNS_10table_baseE(ptr noundef nonnull align 8 dereferenceable(32) %this1, ptr noundef nonnull align 8 dereferenceable(36) %0)
  br i1 %call, label %if.then, label %if.end

if.then:                                          ; preds = %entry
  %call2 = call noalias noundef ptr @_ZN6memory8allocateEm(i64 noundef 24)
  %1 = load ptr, ptr %t.addr, align 8
  %2 = load ptr, ptr %condition.addr, align 8
  %3 = load i32, ptr %removed_col_cnt.addr, align 4
  %4 = load ptr, ptr %removed_cols.addr, align 8
  call void @_ZN7datalog18check_table_plugin33filter_interpreted_and_project_fnC2ERS0_RKNS_10table_baseEP3appjPKj(ptr noundef nonnull align 8 dereferenceable(24) %call2, ptr noundef nonnull align 8 dereferenceable(52) %this1, ptr noundef nonnull align 8 dereferenceable(36) %1, ptr noundef %2, i32 noundef %3, ptr noundef %4)
  store ptr %call2, ptr %retval, align 8
  br label %return

if.end:                                           ; preds = %entry
  store ptr null, ptr %retval, align 8
  br label %return

return:                                           ; preds = %if.end, %if.then
  %5 = load ptr, ptr %retval, align 8
  ret ptr %5
}