; Function Attrs: mustprogress uwtable
define hidden noundef ptr @_ZN7datalog18check_table_plugin36mk_filter_interpreted_and_project_fnERKNS_10table_baseEP3appjPKj(ptr noundef nonnull align 8 dereferenceable(52) %this, ptr noundef nonnull align 8 dereferenceable(36) %t, ptr noundef %condition, i32 noundef %removed_col_cnt, ptr noundef %removed_cols) unnamed_addr #3 align 2 {
entry:
  %m_plugin.i.i = getelementptr inbounds i8, ptr %t, i64 8
  %0 = load ptr, ptr %m_plugin.i.i, align 8
  %cmp.i = icmp eq ptr %0, %this
  br i1 %cmp.i, label %if.then, label %return

if.then:                                          ; preds = %entry
  %call2 = tail call noalias noundef ptr @_ZN6memory8allocateEm(i64 noundef 24)
  tail call void @_ZN7datalog18check_table_plugin33filter_interpreted_and_project_fnC2ERS0_RKNS_10table_baseEP3appjPKj(ptr noundef nonnull align 8 dereferenceable(24) %call2, ptr noundef nonnull align 8 dereferenceable(52) %this, ptr noundef nonnull align 8 dereferenceable(36) %t, ptr noundef %condition, i32 noundef %removed_col_cnt, ptr noundef %removed_cols)
  br label %return

return:                                           ; preds = %entry, %if.then
  %retval.0 = phi ptr [ %call2, %if.then ], [ null, %entry ]
  ret ptr %retval.0
}